	.file	"main.5732f73d3dd865d-cgu.0"
	.section	.text._ZN3std2rt10lang_start17he129056f93ce1f20E,"ax",@progbits
	.hidden	_ZN3std2rt10lang_start17he129056f93ce1f20E
	.globl	_ZN3std2rt10lang_start17he129056f93ce1f20E
	.p2align	2
	.type	_ZN3std2rt10lang_start17he129056f93ce1f20E,@function
_ZN3std2rt10lang_start17he129056f93ce1f20E:
	.cfi_startproc
	sub	sp, sp, #32
	.cfi_def_cfa_offset 32
	stp	x29, x30, [sp, #16]
	add	x29, sp, #16
	.cfi_def_cfa w29, 16
	.cfi_offset w30, -8
	.cfi_offset w29, -16
	mov	w4, w3
	mov	x3, x2
	mov	x2, x1
	str	x0, [sp, #8]
	adrp	x1, .Lanon.04aeab778cdb38575ce21af4af75e3b8.0
	add	x1, x1, :lo12:.Lanon.04aeab778cdb38575ce21af4af75e3b8.0
	add	x0, sp, #8
	bl	_ZN3std2rt19lang_start_internal17h41a352080e87c390E
	.cfi_def_cfa wsp, 32
	ldp	x29, x30, [sp, #16]
	add	sp, sp, #32
	.cfi_def_cfa_offset 0
	.cfi_restore w30
	.cfi_restore w29
	ret
.Lfunc_end0:
	.size	_ZN3std2rt10lang_start17he129056f93ce1f20E, .Lfunc_end0-_ZN3std2rt10lang_start17he129056f93ce1f20E
	.cfi_endproc

	.section	".text._ZN3std2rt10lang_start28_$u7b$$u7b$closure$u7d$$u7d$17h621f9ae3ad33589fE","ax",@progbits
	.p2align	2
	.type	_ZN3std2rt10lang_start28_$u7b$$u7b$closure$u7d$$u7d$17h621f9ae3ad33589fE,@function
_ZN3std2rt10lang_start28_$u7b$$u7b$closure$u7d$$u7d$17h621f9ae3ad33589fE:
	.cfi_startproc
	stp	x29, x30, [sp, #-16]!
	.cfi_def_cfa_offset 16
	mov	x29, sp
	.cfi_def_cfa w29, 16
	.cfi_offset w30, -8
	.cfi_offset w29, -16
	ldr	x0, [x0]
	bl	_ZN3std3sys9backtrace28__rust_begin_short_backtrace17h36c7108d5aa9ce6dE
	mov	w0, wzr
	.cfi_def_cfa wsp, 16
	ldp	x29, x30, [sp], #16
	.cfi_def_cfa_offset 0
	.cfi_restore w30
	.cfi_restore w29
	ret
.Lfunc_end1:
	.size	_ZN3std2rt10lang_start28_$u7b$$u7b$closure$u7d$$u7d$17h621f9ae3ad33589fE, .Lfunc_end1-_ZN3std2rt10lang_start28_$u7b$$u7b$closure$u7d$$u7d$17h621f9ae3ad33589fE
	.cfi_endproc

	.section	.text._ZN3std3sys9backtrace28__rust_begin_short_backtrace17h36c7108d5aa9ce6dE,"ax",@progbits
	.p2align	2
	.type	_ZN3std3sys9backtrace28__rust_begin_short_backtrace17h36c7108d5aa9ce6dE,@function
_ZN3std3sys9backtrace28__rust_begin_short_backtrace17h36c7108d5aa9ce6dE:
	.cfi_startproc
	stp	x29, x30, [sp, #-16]!
	.cfi_def_cfa_offset 16
	mov	x29, sp
	.cfi_def_cfa w29, 16
	.cfi_offset w30, -8
	.cfi_offset w29, -16
	blr	x0
	//APP
	//NO_APP
	.cfi_def_cfa wsp, 16
	ldp	x29, x30, [sp], #16
	.cfi_def_cfa_offset 0
	.cfi_restore w30
	.cfi_restore w29
	ret
.Lfunc_end2:
	.size	_ZN3std3sys9backtrace28__rust_begin_short_backtrace17h36c7108d5aa9ce6dE, .Lfunc_end2-_ZN3std3sys9backtrace28__rust_begin_short_backtrace17h36c7108d5aa9ce6dE
	.cfi_endproc

	.section	".text._ZN4core3ops8function6FnOnce40call_once$u7b$$u7b$vtable.shim$u7d$$u7d$17h9011e729a45848d2E","ax",@progbits
	.p2align	2
	.type	_ZN4core3ops8function6FnOnce40call_once$u7b$$u7b$vtable.shim$u7d$$u7d$17h9011e729a45848d2E,@function
_ZN4core3ops8function6FnOnce40call_once$u7b$$u7b$vtable.shim$u7d$$u7d$17h9011e729a45848d2E:
	.cfi_startproc
	stp	x29, x30, [sp, #-16]!
	.cfi_def_cfa_offset 16
	mov	x29, sp
	.cfi_def_cfa w29, 16
	.cfi_offset w30, -8
	.cfi_offset w29, -16
	ldr	x0, [x0]
	bl	_ZN3std3sys9backtrace28__rust_begin_short_backtrace17h36c7108d5aa9ce6dE
	mov	w0, wzr
	.cfi_def_cfa wsp, 16
	ldp	x29, x30, [sp], #16
	.cfi_def_cfa_offset 0
	.cfi_restore w30
	.cfi_restore w29
	ret
.Lfunc_end3:
	.size	_ZN4core3ops8function6FnOnce40call_once$u7b$$u7b$vtable.shim$u7d$$u7d$17h9011e729a45848d2E, .Lfunc_end3-_ZN4core3ops8function6FnOnce40call_once$u7b$$u7b$vtable.shim$u7d$$u7d$17h9011e729a45848d2E
	.cfi_endproc

	.section	.text._ZN4main3tak17hc54be1d56ea100feE,"ax",@progbits
	.p2align	2
	.type	_ZN4main3tak17hc54be1d56ea100feE,@function
_ZN4main3tak17hc54be1d56ea100feE:
	.cfi_startproc
	stp	x29, x30, [sp, #-64]!
	.cfi_def_cfa_offset 64
	str	x23, [sp, #16]
	stp	x22, x21, [sp, #32]
	stp	x20, x19, [sp, #48]
	mov	x29, sp
	.cfi_def_cfa w29, 64
	.cfi_offset w19, -8
	.cfi_offset w20, -16
	.cfi_offset w21, -24
	.cfi_offset w22, -32
	.cfi_offset w23, -48
	.cfi_offset w30, -56
	.cfi_offset w29, -64
	cmp	x0, x1
	mov	x19, x2
	b.ls	.LBB4_3
	mov	x20, x1
	mov	x21, x0
.LBB4_2:
	sub	x0, x21, #1
	mov	x1, x20
	mov	x2, x19
	bl	_ZN4main3tak17hc54be1d56ea100feE
	mov	x22, x0
	sub	x0, x20, #1
	mov	x1, x19
	mov	x2, x21
	bl	_ZN4main3tak17hc54be1d56ea100feE
	mov	x23, x0
	sub	x0, x19, #1
	mov	x1, x21
	mov	x2, x20
	bl	_ZN4main3tak17hc54be1d56ea100feE
	mov	x19, x0
	cmp	x22, x23
	mov	x20, x23
	mov	x21, x22
	b.hi	.LBB4_2
.LBB4_3:
	mov	x0, x19
	.cfi_def_cfa wsp, 64
	ldp	x20, x19, [sp, #48]
	ldr	x23, [sp, #16]
	ldp	x22, x21, [sp, #32]
	ldp	x29, x30, [sp], #64
	.cfi_def_cfa_offset 0
	.cfi_restore w19
	.cfi_restore w20
	.cfi_restore w21
	.cfi_restore w22
	.cfi_restore w23
	.cfi_restore w30
	.cfi_restore w29
	ret
.Lfunc_end4:
	.size	_ZN4main3tak17hc54be1d56ea100feE, .Lfunc_end4-_ZN4main3tak17hc54be1d56ea100feE
	.cfi_endproc

	.section	.text._ZN4main4main17h02cbda4dfa830c12E,"ax",@progbits
	.hidden	_ZN4main4main17h02cbda4dfa830c12E
	.globl	_ZN4main4main17h02cbda4dfa830c12E
	.p2align	2
	.type	_ZN4main4main17h02cbda4dfa830c12E,@function
_ZN4main4main17h02cbda4dfa830c12E:
	.cfi_startproc
	sub	sp, sp, #96
	.cfi_def_cfa_offset 96
	stp	x29, x30, [sp, #80]
	add	x29, sp, #80
	.cfi_def_cfa w29, 16
	.cfi_offset w30, -8
	.cfi_offset w29, -16
	mov	w0, #24
	mov	w1, #16
	mov	w2, #8
	bl	_ZN4main3tak17hc54be1d56ea100feE
	adrp	x9, :got:_ZN4core3fmt3num3imp52_$LT$impl$u20$core..fmt..Display$u20$for$u20$i64$GT$3fmt17ha0eaad3c75865f80E
	add	x8, sp, #8
	ldr	x9, [x9, :got_lo12:_ZN4core3fmt3num3imp52_$LT$impl$u20$core..fmt..Display$u20$for$u20$i64$GT$3fmt17ha0eaad3c75865f80E]
	stp	x8, x9, [x29, #-16]
	adrp	x8, .Lanon.04aeab778cdb38575ce21af4af75e3b8.2
	add	x8, x8, :lo12:.Lanon.04aeab778cdb38575ce21af4af75e3b8.2
	mov	w9, #2
	stp	x0, x8, [sp, #8]
	sub	x8, x29, #16
	stp	x9, x8, [sp, #24]
	mov	w9, #1
	add	x0, sp, #16
	stp	x9, xzr, [sp, #40]
	bl	_ZN3std2io5stdio6_print17hdd860001209cfb53E
	.cfi_def_cfa wsp, 96
	ldp	x29, x30, [sp, #80]
	add	sp, sp, #96
	.cfi_def_cfa_offset 0
	.cfi_restore w30
	.cfi_restore w29
	ret
.Lfunc_end5:
	.size	_ZN4main4main17h02cbda4dfa830c12E, .Lfunc_end5-_ZN4main4main17h02cbda4dfa830c12E
	.cfi_endproc

	.section	.text.main,"ax",@progbits
	.globl	main
	.p2align	2
	.type	main,@function
main:
	.cfi_startproc
	sub	sp, sp, #32
	stp	x29, x30, [sp, #16]
	add	x29, sp, #16
	.cfi_def_cfa w29, 16
	.cfi_offset w30, -8
	.cfi_offset w29, -16
	sxtw	x2, w0
	mov	x3, x1
	adrp	x8, _ZN4main4main17h02cbda4dfa830c12E
	add	x8, x8, :lo12:_ZN4main4main17h02cbda4dfa830c12E
	adrp	x1, .Lanon.04aeab778cdb38575ce21af4af75e3b8.0
	add	x1, x1, :lo12:.Lanon.04aeab778cdb38575ce21af4af75e3b8.0
	add	x0, sp, #8
	mov	w4, wzr
	str	x8, [sp, #8]
	bl	_ZN3std2rt19lang_start_internal17h41a352080e87c390E
	ldp	x29, x30, [sp, #16]
	add	sp, sp, #32
	ret
.Lfunc_end6:
	.size	main, .Lfunc_end6-main
	.cfi_endproc

	.type	.Lanon.04aeab778cdb38575ce21af4af75e3b8.0,@object
	.section	.data.rel.ro..Lanon.04aeab778cdb38575ce21af4af75e3b8.0,"aw",@progbits
	.p2align	3, 0x0
.Lanon.04aeab778cdb38575ce21af4af75e3b8.0:
	.asciz	"\000\000\000\000\000\000\000\000\b\000\000\000\000\000\000\000\b\000\000\000\000\000\000"
	.xword	_ZN4core3ops8function6FnOnce40call_once$u7b$$u7b$vtable.shim$u7d$$u7d$17h9011e729a45848d2E
	.xword	_ZN3std2rt10lang_start28_$u7b$$u7b$closure$u7d$$u7d$17h621f9ae3ad33589fE
	.xword	_ZN3std2rt10lang_start28_$u7b$$u7b$closure$u7d$$u7d$17h621f9ae3ad33589fE
	.size	.Lanon.04aeab778cdb38575ce21af4af75e3b8.0, 48

	.type	.Lanon.04aeab778cdb38575ce21af4af75e3b8.1,@object
	.section	.rodata..Lanon.04aeab778cdb38575ce21af4af75e3b8.1,"a",@progbits
.Lanon.04aeab778cdb38575ce21af4af75e3b8.1:
	.byte	10
	.size	.Lanon.04aeab778cdb38575ce21af4af75e3b8.1, 1

	.type	.Lanon.04aeab778cdb38575ce21af4af75e3b8.2,@object
	.section	.data.rel.ro..Lanon.04aeab778cdb38575ce21af4af75e3b8.2,"aw",@progbits
	.p2align	3, 0x0
.Lanon.04aeab778cdb38575ce21af4af75e3b8.2:
	.xword	1
	.zero	8
	.xword	.Lanon.04aeab778cdb38575ce21af4af75e3b8.1
	.asciz	"\001\000\000\000\000\000\000"
	.size	.Lanon.04aeab778cdb38575ce21af4af75e3b8.2, 32

	.ident	"rustc version 1.92.0 (ded5c06cf 2025-12-08)"
	.section	".note.GNU-stack","",@progbits
